; Function Attrs: mustprogress nofree norecurse nosync nounwind willreturn memory(argmem: readwrite) uwtable
define internal void @_ZL10init_kwintPK10gmx_mtop_tiP18gmx_ana_selparam_tPv(ptr readnone captures(none) %0, i32 %1, ptr noundef readonly captures(none) %2, ptr noundef writeonly captures(none) initializes((0, 12), (16, 24)) %3) #1 {
  %5 = getelementptr inbounds nuw i8, ptr %2, i64 16
  %6 = load ptr, ptr %5, align 8, !tbaa !4
  store ptr %6, ptr %3, align 8, !tbaa !7
  %7 = getelementptr inbounds nuw i8, ptr %2, i64 60
  %8 = load i32, ptr %7, align 4, !tbaa !12
  %9 = getelementptr inbounds nuw i8, ptr %3, i64 8
  store i32 %8, ptr %9, align 8, !tbaa !17
  %10 = getelementptr inbounds nuw i8, ptr %2, i64 64
  %11 = load ptr, ptr %10, align 8, !tbaa !4
  %12 = getelementptr inbounds nuw i8, ptr %3, i64 16
  store ptr %11, ptr %12, align 8, !tbaa !18
  ret void
}